target datalayout = "e-m:e-p270:32:32-p271:32:32-p272:64:64-i64:64-i128:128-f80:128-n8:16:32:64-S128"
target triple = "x86_64-pc-linux-gnu"

@fmtIdEncoding = internal global i32 -1, align 4
@.str.13 = private unnamed_addr constant [1 x i8] zeroinitializer, align 1
@.str.14 = private unnamed_addr constant [3 x i8] c", \00", align 1
@.str.15 = private unnamed_addr constant [6 x i8] c"%s%s=\00", align 1

; Function Attrs: nounwind uwtable
define internal i32 @getFmtEncoding() #0 {
  %1 = alloca i32, align 4
  %2 = load i32, ptr @fmtIdEncoding, align 4
  %3 = icmp ne i32 %2, -1
  br i1 %3, label %4, label %6

4:                                                ; preds = %0
  %5 = load i32, ptr @fmtIdEncoding, align 4
  store i32 %5, ptr %1, align 4
  br label %7

6:                                                ; preds = %0
  store i32 6, ptr %1, align 4
  br label %7

7:                                                ; preds = %6, %4
  %8 = load i32, ptr %1, align 4
  ret i32 %8
}

; Function Attrs: nounwind uwtable
define dso_local ptr @fmtId(ptr noundef %0) #0 {
  %2 = alloca ptr, align 8
  store ptr %0, ptr %2, align 8
  %3 = load ptr, ptr %2, align 8
  %4 = call i32 @getFmtEncoding()
  %5 = call ptr @fmtIdEnc(ptr noundef %3, i32 noundef %4)
  ret ptr %5
}

; Function Attrs: nounwind uwtable
define dso_local zeroext i1 @appendReloptionsArray(ptr noundef %0, ptr noundef %1, ptr noundef %2, i32 noundef %3, i1 noundef zeroext %4) #0 {
  %6 = alloca i1, align 1
  %7 = alloca ptr, align 8
  %8 = alloca ptr, align 8
  %9 = alloca ptr, align 8
  %10 = alloca i32, align 4
  %11 = alloca i8, align 1
  %12 = alloca ptr, align 8
  %13 = alloca i32, align 4
  %14 = alloca i32, align 4
  %15 = alloca i32, align 4
  %16 = alloca ptr, align 8
  %17 = alloca ptr, align 8
  %18 = alloca ptr, align 8
  %19 = alloca ptr, align 8
  store ptr %0, ptr %7, align 8
  store ptr %1, ptr %8, align 8
  store ptr %2, ptr %9, align 8
  store i32 %3, ptr %10, align 4
  %20 = zext i1 %4 to i8
  store i8 %20, ptr %11, align 1
  call void @llvm.lifetime.start.p0(i64 8, ptr %12) #8
  call void @llvm.lifetime.start.p0(i64 4, ptr %13) #8
  call void @llvm.lifetime.start.p0(i64 4, ptr %14) #8
  %21 = load ptr, ptr %8, align 8
  %22 = call zeroext i1 @parsePGArray(ptr noundef %21, ptr noundef %12, ptr noundef %13)
  br i1 %22, label %25, label %23

23:                                               ; preds = %5
  %24 = load ptr, ptr %12, align 8
  call void @free(ptr noundef %24) #8
  store i1 false, ptr %6, align 1
  store i32 1, ptr %15, align 4
  br label %76

25:                                               ; preds = %5
  store i32 0, ptr %14, align 4
  br label %26

26:                                               ; preds = %71, %25
  %27 = load i32, ptr %14, align 4
  %28 = load i32, ptr %13, align 4
  %29 = icmp slt i32 %27, %28
  br i1 %29, label %30, label %74

30:                                               ; preds = %26
  call void @llvm.lifetime.start.p0(i64 8, ptr %16) #8
  %31 = load ptr, ptr %12, align 8
  %32 = load i32, ptr %14, align 4
  %33 = sext i32 %32 to i64
  %34 = getelementptr inbounds ptr, ptr %31, i64 %33
  %35 = load ptr, ptr %34, align 8
  store ptr %35, ptr %16, align 8
  call void @llvm.lifetime.start.p0(i64 8, ptr %17) #8
  call void @llvm.lifetime.start.p0(i64 8, ptr %18) #8
  call void @llvm.lifetime.start.p0(i64 8, ptr %19) #8
  %36 = load ptr, ptr %16, align 8
  store ptr %36, ptr %17, align 8
  %37 = load ptr, ptr %16, align 8
  %38 = call ptr @strchr(ptr noundef %37, i32 noundef 61) #9
  store ptr %38, ptr %18, align 8
  %39 = load ptr, ptr %18, align 8
  %40 = icmp ne ptr %39, null
  br i1 %40, label %41, label %45

41:                                               ; preds = %30
  %42 = load ptr, ptr %18, align 8
  store i8 0, ptr %42, align 1
  %43 = load ptr, ptr %18, align 8
  %44 = getelementptr inbounds i8, ptr %43, i64 1
  store ptr %44, ptr %19, align 8
  br label %46

45:                                               ; preds = %30
  store ptr @.str.13, ptr %19, align 8
  br label %46

46:                                               ; preds = %45, %41
  %47 = load i32, ptr %14, align 4
  %48 = icmp sgt i32 %47, 0
  br i1 %48, label %49, label %51

49:                                               ; preds = %46
  %50 = load ptr, ptr %7, align 8
  call void @appendPQExpBufferStr(ptr noundef %50, ptr noundef @.str.14)
  br label %51

51:                                               ; preds = %49, %46
  %52 = load ptr, ptr %7, align 8
  %53 = load ptr, ptr %9, align 8
  %54 = load ptr, ptr %17, align 8
  %55 = call ptr @fmtId(ptr noundef %54)
  call void (ptr, ptr, ...) @appendPQExpBuffer(ptr noundef %52, ptr noundef @.str.15, ptr noundef %53, ptr noundef %55)
  %56 = load ptr, ptr %19, align 8
  %57 = call ptr @fmtId(ptr noundef %56)
  %58 = load ptr, ptr %19, align 8
  %59 = call i32 @strcmp(ptr noundef %57, ptr noundef %58) #9
  %60 = icmp eq i32 %59, 0
  br i1 %60, label %61, label %64

61:                                               ; preds = %51
  %62 = load ptr, ptr %7, align 8
  %63 = load ptr, ptr %19, align 8
  call void @appendPQExpBufferStr(ptr noundef %62, ptr noundef %63)
  br label %70

64:                                               ; preds = %51
  %65 = load ptr, ptr %7, align 8
  %66 = load ptr, ptr %19, align 8
  %67 = load i32, ptr %10, align 4
  %68 = load i8, ptr %11, align 1, !range !6, !noundef !7
  %69 = trunc i8 %68 to i1
  call void @appendStringLiteral(ptr noundef %65, ptr noundef %66, i32 noundef %67, i1 noundef zeroext %69)
  br label %70

70:                                               ; preds = %64, %61
  call void @llvm.lifetime.end.p0(i64 8, ptr %19) #8
  call void @llvm.lifetime.end.p0(i64 8, ptr %18) #8
  call void @llvm.lifetime.end.p0(i64 8, ptr %17) #8
  call void @llvm.lifetime.end.p0(i64 8, ptr %16) #8
  br label %71

71:                                               ; preds = %70
  %72 = load i32, ptr %14, align 4
  %73 = add i32 %72, 1
  store i32 %73, ptr %14, align 4
  br label %26, !llvm.loop !23

74:                                               ; preds = %26
  %75 = load ptr, ptr %12, align 8
  call void @free(ptr noundef %75) #8
  store i1 true, ptr %6, align 1
  store i32 1, ptr %15, align 4
  br label %76

76:                                               ; preds = %74, %23
  call void @llvm.lifetime.end.p0(i64 4, ptr %14) #8
  call void @llvm.lifetime.end.p0(i64 4, ptr %13) #8
  call void @llvm.lifetime.end.p0(i64 8, ptr %12) #8
  %77 = load i1, ptr %6, align 1
  ret i1 %77
}