; Function Attrs: nounwind uwtable
define dso_local noundef zeroext i1 @appendReloptionsArray(ptr noundef %0, ptr noundef readonly captures(none) %1, ptr noundef %2, i32 noundef %3, i1 noundef zeroext %4) local_unnamed_addr #0 {
  %6 = alloca ptr, align 8
  %7 = alloca i32, align 4
  call void @llvm.lifetime.start.p0(i64 8, ptr nonnull %6) #11
  call void @llvm.lifetime.start.p0(i64 4, ptr nonnull %7) #11
  %8 = call zeroext i1 @parsePGArray(ptr noundef %1, ptr noundef nonnull %6, ptr noundef nonnull %7)
  br i1 %8, label %.preheader, label %11

.preheader:                                       ; preds = %5
  %9 = load i32, ptr %7, align 4
  %10 = icmp sgt i32 %9, 0
  %.pre = load ptr, ptr %6, align 8
  br i1 %10, label %.lr.ph, label %._crit_edge

.lr.ph:                                           ; preds = %.preheader
  %wide.trip.count = zext nneg i32 %9 to i64
  br label %13

11:                                               ; preds = %5
  %12 = load ptr, ptr %6, align 8
  br label %._crit_edge

13:                                               ; preds = %.lr.ph, %30
  %indvars.iv = phi i64 [ 0, %.lr.ph ], [ %indvars.iv.next, %30 ]
  %14 = getelementptr inbounds nuw ptr, ptr %.pre, i64 %indvars.iv
  %15 = load ptr, ptr %14, align 8
  %16 = tail call ptr @strchr(ptr noundef nonnull dereferenceable(1) %15, i32 noundef 61) #12
  %.not = icmp eq ptr %16, null
  br i1 %.not, label %19, label %17

17:                                               ; preds = %13
  store i8 0, ptr %16, align 1
  %18 = getelementptr inbounds nuw i8, ptr %16, i64 1
  br label %19

19:                                               ; preds = %13, %17
  %.0 = phi ptr [ %18, %17 ], [ @.str.13, %13 ]
  %.not29 = icmp eq i64 %indvars.iv, 0
  br i1 %.not29, label %21, label %20

20:                                               ; preds = %19
  tail call void @appendPQExpBufferStr(ptr noundef %0, ptr noundef nonnull @.str.14) #11
  br label %21

21:                                               ; preds = %20, %19
  %22 = load i32, ptr @fmtIdEncoding, align 4
  %.not.i.i = icmp eq i32 %22, -1
  %..i.i = select i1 %.not.i.i, i32 6, i32 %22
  %23 = tail call ptr @fmtIdEnc(ptr noundef nonnull %15, i32 noundef %..i.i)
  tail call void (ptr, ptr, ...) @appendPQExpBuffer(ptr noundef %0, ptr noundef nonnull @.str.15, ptr noundef %2, ptr noundef %23) #11
  %24 = load i32, ptr @fmtIdEncoding, align 4
  %.not.i.i25 = icmp eq i32 %24, -1
  %..i.i26 = select i1 %.not.i.i25, i32 6, i32 %24
  %25 = tail call ptr @fmtIdEnc(ptr noundef nonnull %.0, i32 noundef %..i.i26)
  %26 = tail call i32 @strcmp(ptr noundef nonnull dereferenceable(1) %25, ptr noundef nonnull dereferenceable(1) %.0) #12
  %27 = icmp eq i32 %26, 0
  br i1 %27, label %28, label %29

28:                                               ; preds = %21
  tail call void @appendPQExpBufferStr(ptr noundef %0, ptr noundef nonnull %.0) #11
  br label %30

29:                                               ; preds = %21
  tail call void @appendStringLiteral(ptr noundef %0, ptr noundef nonnull %.0, i32 noundef %3, i1 noundef zeroext %4)
  br label %30

30:                                               ; preds = %29, %28
  %indvars.iv.next = add nuw nsw i64 %indvars.iv, 1
  %exitcond.not = icmp eq i64 %indvars.iv.next, %wide.trip.count
  br i1 %exitcond.not, label %._crit_edge, label %13, !llvm.loop !21

._crit_edge:                                      ; preds = %30, %.preheader, %11
  %.pre.sink = phi ptr [ %12, %11 ], [ %.pre, %.preheader ], [ %.pre, %30 ]
  tail call void @free(ptr noundef %.pre.sink) #11
  call void @llvm.lifetime.end.p0(i64 4, ptr nonnull %7) #11
  call void @llvm.lifetime.end.p0(i64 8, ptr nonnull %6) #11
  ret i1 %8
}